-----BEGIN RSA PRIVATE KEY-----
Proc-Type: 4,ENCRYPTED
DEK-Info: AES-128-CBC,466DC6C7AF9F9EAC9675C2F32DC27FFB

y113f/gNbGSz6fc1q5ZIUc4HSXBSPe6I0HZ62dkBczU3KxCTUwKkyQNERQWZHRy7
9qrFTFmBtw3py17K236N2XkH+BlQdHziS+oMOfp9PnA7xbZ7q861t89Vp+pdbh1r
qu39MtAvrUupoPIC9EmBk7CVrhoF9h4Nsbw83ks9u3VqibMcloMWvibSvceSbSjM
+tpUuELHc7gsdA6La5p1i4hq3G9cPrdSZEValqtXp21ZqLP4UXfth4vhantXMqMK
+ReVOIJrgEOKP81do+LhI6MHHw2/AqVxA5QOFL3YRM/HnXr8FxR2QVnFo4lBbOy+
EBJc8Lk2zkIx6mq1wdpPkItFwyFvLUL9zMUdx37b5+JdFtjY4ADUcs5CYep1avEN
EWLerb5elwA0ZQ0JZbTwhMfVF78zDgOZRYMVigr9pUe87cs+0zBVZl8eu+dz8CEF
ubgYVn4OSPVepHGgQQdR6/ffElo1a5OddIqLaHHaQHRvv3DWFLc6MTEBihlpEr6s
CNTX6c3DqFyA4ciBcaGFyZXkUEv4JrhtGFFNM8V99NE4QpilnhC8t0Lzd3fx6gp3
/OeAD+pFktB4dbADFbbopJD7XEtkmtYylb66aQvwIZoXUT6KLIHxZOtXFe2yFa9D
67fCK0+UIai29dICOqpO9ASJ/BBczph4ZpBUi+oVPDcZVNKGff0PK5+KAXnyFc2S
VteKdLzzVF7CNPJ1NkgLLyhxV0kIi1dd1ODfAWuApqmCCYGbQ8NykndBCMZNs7R1
9bGjBqTHkDK36TCMEYmaeqXWkdjq52ck8pyR1HvO9Bo0cped+Xn10eeFRddK3Bmn
-----END RSA PRIVATE KEY-----
Certificate:
    Data:
        Version: 3 (0x2)
        Serial Number: 305419896 (0x12345678)
    Signature Algorithm: sha256WithRSAEncryption
        Issuer: C=ba, ST=dhaka, L=dhaka, O=cse, OU=student, CN=zaoad/emailAddress=zaoadcsedu22.23@gmail.com
        Validity
            Not Before: Feb 11 09:16:40 2019 GMT
            Not After : Feb 11 09:16:40 2020 GMT
        Subject: C=ba, ST=dhaka, O=cse, OU=student, CN=zaoad/emailAddress=zaoadcsedu22.23@gmail.com
        Subject Public Key Info:
            Public Key Algorithm: rsaEncryption
                Public-Key: (1024 bit)
                Modulus:
                    00:d5:3f:d3:d8:96:50:22:98:49:f5:b8:e6:61:60:
                    ae:55:b4:8c:36:b1:d3:64:48:b8:4c:29:a2:a3:ce:
                    ee:e9:6a:5b:3c:5a:d0:8c:bc:2d:04:a4:65:e6:1b:
                    06:bd:85:13:ff:67:7b:de:2e:b8:b3:c2:b7:c5:59:
                    af:c3:3c:b6:d4:5e:30:ff:d9:b5:d6:8f:41:e9:a9:
                    c5:12:5e:8c:19:00:68:51:d2:56:84:fc:da:07:65:
                    62:c9:90:60:76:12:5c:e0:d4:e5:88:52:91:8c:2e:
                    c0:bd:5b:36:89:dc:c2:8d:64:e1:83:a3:4c:be:6d:
                    3e:58:6d:ba:47:0a:5d:48:cb
                Exponent: 65537 (0x10001)
        X509v3 extensions:
            X509v3 Basic Constraints: 
                CA:FALSE
            Netscape Comment: 
                OpenSSL Generated Certificate
            X509v3 Subject Key Identifier: 
                FC:D8:45:7C:70:17:09:36:4B:2E:CF:73:DC:E8:FC:7F:54:21:B9:35
            X509v3 Authority Key Identifier: 
                keyid:99:10:5C:B7:56:95:04:D6:78:6C:AC:DE:4F:FA:81:95:EC:47:39:99

    Signature Algorithm: sha256WithRSAEncryption
         02:11:3b:d0:96:8b:a5:72:89:09:dc:75:b2:05:6c:dc:86:ec:
         a6:96:e6:90:d2:a9:40:86:8b:ef:a1:37:54:9f:d9:70:69:5a:
         27:c9:16:1d:9d:c5:6a:eb:2e:17:60:d3:25:a5:85:f2:6c:7a:
         f3:5f:96:4f:8c:69:ec:dc:32:8a:b6:8d:34:da:e5:42:46:93:
         f5:a0:f1:cb:56:d4:8c:4f:77:36:54:44:d4:81:4c:be:b4:fc:
         87:0e:9d:a9:84:56:07:6e:ff:10:21:64:46:05:d5:a5:3a:d3:
         34:81:87:54:34:ed:00:0c:d8:68:df:ce:c1:0b:a3:a0:ab:62:
         5a:b9:93:af:0a:e4:99:a3:28:b3:5e:0d:9f:a0:30:3d:03:55:
         3f:6a:d9:1d:9c:cd:eb:86:f8:cb:12:5f:e0:97:2d:32:3d:78:
         cc:72:9b:c3:b6:61:08:fd:77:c3:26:a9:e6:cf:ce:b2:1c:4f:
         2c:92:96:62:75:60:4f:2e:77:71:e3:d2:80:c2:c7:6d:6a:fe:
         fb:27:15:78:d2:22:36:9f:20:64:6a:e6:7d:17:e6:09:54:c5:
         46:60:3e:3b:24:3d:8a:88:e4:6b:60:16:c7:e4:20:82:3c:4d:
         29:79:b9:3e:3e:a1:06:ce:d7:c4:89:21:0d:d8:49:0f:5a:78:
         99:70:cc:ea
-----BEGIN CERTIFICATE-----
MIIDdDCCAlygAwIBAgIEEjRWeDANBgkqhkiG9w0BAQsFADCBhzELMAkGA1UEBhMC
YmExDjAMBgNVBAgMBWRoYWthMQ4wDAYDVQQHDAVkaGFrYTEMMAoGA1UECgwDY3Nl
MRAwDgYDVQQLDAdzdHVkZW50MQ4wDAYDVQQDDAV6YW9hZDEoMCYGCSqGSIb3DQEJ
ARYZemFvYWRjc2VkdTIyLjIzQGdtYWlsLmNvbTAeFw0xOTAyMTEwOTE2NDBaFw0y
MDAyMTEwOTE2NDBaMHcxCzAJBgNVBAYTAmJhMQ4wDAYDVQQIDAVkaGFrYTEMMAoG
A1UECgwDY3NlMRAwDgYDVQQLDAdzdHVkZW50MQ4wDAYDVQQDDAV6YW9hZDEoMCYG
CSqGSIb3DQEJARYZemFvYWRjc2VkdTIyLjIzQGdtYWlsLmNvbTCBnzANBgkqhkiG
9w0BAQEFAAOBjQAwgYkCgYEA1T/T2JZQIphJ9bjmYWCuVbSMNrHTZEi4TCmio87u
6WpbPFrQjLwtBKRl5hsGvYUT/2d73i64s8K3xVmvwzy21F4w/9m11o9B6anFEl6M
GQBoUdJWhPzaB2ViyZBgdhJc4NTliFKRjC7AvVs2idzCjWThg6NMvm0+WG26Rwpd
SMsCAwEAAaN7MHkwCQYDVR0TBAIwADAsBglghkgBhvhCAQ0EHxYdT3BlblNTTCBH
ZW5lcmF0ZWQgQ2VydGlmaWNhdGUwHQYDVR0OBBYEFPzYRXxwFwk2Sy7Pc9zo/H9U
Ibk1MB8GA1UdIwQYMBaAFJkQXLdWlQTWeGys3k/6gZXsRzmZMA0GCSqGSIb3DQEB
CwUAA4IBAQACETvQloulcokJ3HWyBWzchuymluaQ0qlAhovvoTdUn9lwaVonyRYd
ncVq6y4XYNMlpYXybHrzX5ZPjGns3DKKto002uVCRpP1oPHLVtSMT3c2VETUgUy+
tPyHDp2phFYHbv8QIWRGBdWlOtM0gYdUNO0ADNho387BC6Ogq2JauZOvCuSZoyiz
Xg2foDA9A1U/atkdnM3rhvjLEl/gly0yPXjMcpvDtmEI/XfDJqnmz86yHE8skpZi
dWBPLndx49KAwsdtav77JxV40iI2nyBkauZ9F+YJVMVGYD47JD2KiORrYBbH5CCC
PE0pebk+PqEGztfEiSEN2EkPWniZcMzq
-----END CERTIFICATE-----
